target datalayout = "e-m:e-p270:32:32-p271:32:32-p272:64:64-i64:64-i128:128-f80:128-n8:16:32:64-S128"
target triple = "x86_64-pc-linux-gnu"

%struct._address = type { i32, i32, ptr, ptr }
%struct._packet_info = type { ptr, ptr, i32, i32, %struct.nstime_t, %struct.nstime_t, %struct.nstime_t, i8, ptr, ptr, ptr, ptr, %struct._address, %struct._address, %struct._address, %struct._address, %struct._address, %struct._address, i32, ptr, i8, [3 x i8], %struct.anon, i32, i32, i32, i32, ptr, i8, ptr, ptr, i16, i16, i32, i32, i16, i32, i32, ptr, ptr, ptr, i8, i8, i16, i16, i16, i32, i16, i16, ptr, ptr, ptr, ptr, ptr, i32, i32 }
%struct.nstime_t = type { i64, i32 }
%struct.anon = type { i8, [3 x i8] }

@hf_ieee80211_tag_number = internal global i32 0, align 4
@hf_ieee80211_tag_length = internal global i32 0, align 4
@hf_ieee80211_tag_ssid = internal global i32 0, align 4
@ett_ssid_list = internal global i32 0, align 4
@.str.10113 = private unnamed_addr constant [6 x i8] c"%c %s\00", align 1
@.str.10114 = private unnamed_addr constant [9 x i8] c"SSID: %s\00", align 1

; Function Attrs: null_pointer_is_valid sspstrong uwtable
define internal i32 @dissect_ssid_list(ptr noundef %0, ptr noundef %1, ptr noundef %2, ptr noundef %3) #1 {
  %5 = alloca ptr, align 8
  %6 = alloca ptr, align 8
  %7 = alloca ptr, align 8
  %8 = alloca ptr, align 8
  %9 = alloca i32, align 4
  %10 = alloca i32, align 4
  %11 = alloca ptr, align 8
  %12 = alloca i8, align 1
  %13 = alloca i8, align 1
  %14 = alloca ptr, align 8
  %15 = alloca i32, align 4
  store ptr %0, ptr %5, align 8
  store ptr %1, ptr %6, align 8
  store ptr %2, ptr %7, align 8
  store ptr %3, ptr %8, align 8
  call void @llvm.lifetime.start.p0(i64 4, ptr %9) #19
  %16 = load ptr, ptr %5, align 8
  %17 = call i32 @tvb_reported_length(ptr noundef %16)
  store i32 %17, ptr %9, align 4
  call void @llvm.lifetime.start.p0(i64 4, ptr %10) #19
  store i32 0, ptr %10, align 4
  call void @llvm.lifetime.start.p0(i64 8, ptr %11) #19
  call void @llvm.lifetime.start.p0(i64 1, ptr %12) #19
  store i8 1, ptr %12, align 1
  br label %18

18:                                               ; preds = %89, %4
  %19 = load i32, ptr %10, align 4
  %20 = add i32 %19, 1
  %21 = load i32, ptr %9, align 4
  %22 = icmp sle i32 %20, %21
  br i1 %22, label %23, label %90

23:                                               ; preds = %18
  call void @llvm.lifetime.start.p0(i64 1, ptr %13) #19
  %24 = load ptr, ptr %5, align 8
  %25 = load i32, ptr %10, align 4
  %26 = add i32 %25, 1
  %27 = call zeroext i8 @tvb_get_uint8(ptr noundef %24, i32 noundef %26)
  store i8 %27, ptr %13, align 1
  call void @llvm.lifetime.start.p0(i64 8, ptr %14) #19
  %28 = load i32, ptr %10, align 4
  %29 = add i32 %28, 2
  %30 = load i8, ptr %13, align 1
  %31 = zext i8 %30 to i32
  %32 = add i32 %29, %31
  %33 = load i32, ptr %9, align 4
  %34 = icmp sgt i32 %32, %33
  br i1 %34, label %35, label %36

35:                                               ; preds = %23
  store i32 3, ptr %15, align 4
  br label %87

36:                                               ; preds = %23
  %37 = load ptr, ptr %6, align 8
  %38 = getelementptr inbounds nuw %struct._packet_info, ptr %37, i32 0, i32 51
  %39 = load ptr, ptr %38, align 8
  %40 = load ptr, ptr %5, align 8
  %41 = load i32, ptr %10, align 4
  %42 = add i32 %41, 2
  %43 = load i8, ptr %13, align 1
  %44 = zext i8 %43 to i32
  %45 = call ptr @tvb_format_text(ptr noundef %39, ptr noundef %40, i32 noundef %42, i32 noundef %44)
  store ptr %45, ptr %14, align 8
  %46 = load ptr, ptr %7, align 8
  %47 = load i8, ptr %12, align 1, !range !6, !noundef !7
  %48 = trunc i8 %47 to i1
  %49 = select i1 %48, i32 58, i32 44
  %50 = load ptr, ptr %14, align 8
  call void (ptr, ptr, ...) @proto_item_append_text(ptr noundef %46, ptr noundef @.str.10113, i32 noundef %49, ptr noundef %50)
  store i8 0, ptr %12, align 1
  %51 = load ptr, ptr %7, align 8
  %52 = load ptr, ptr %5, align 8
  %53 = load i32, ptr %10, align 4
  %54 = load i8, ptr %13, align 1
  %55 = zext i8 %54 to i32
  %56 = add i32 2, %55
  %57 = load i32, ptr @ett_ssid_list, align 4
  %58 = load ptr, ptr %14, align 8
  %59 = call ptr (ptr, ptr, i32, i32, i32, ptr, ptr, ...) @proto_tree_add_subtree_format(ptr noundef %51, ptr noundef %52, i32 noundef %53, i32 noundef %56, i32 noundef %57, ptr noundef null, ptr noundef @.str.10114, ptr noundef %58)
  store ptr %59, ptr %11, align 8
  %60 = load ptr, ptr %11, align 8
  %61 = load i32, ptr @hf_ieee80211_tag_number, align 4
  %62 = load ptr, ptr %5, align 8
  %63 = load i32, ptr %10, align 4
  %64 = call ptr @proto_tree_add_item(ptr noundef %60, i32 noundef %61, ptr noundef %62, i32 noundef %63, i32 noundef 1, i32 noundef -2147483648)
  %65 = load i32, ptr %10, align 4
  %66 = add i32 %65, 1
  store i32 %66, ptr %10, align 4
  %67 = load ptr, ptr %11, align 8
  %68 = load i32, ptr @hf_ieee80211_tag_length, align 4
  %69 = load ptr, ptr %5, align 8
  %70 = load i32, ptr %10, align 4
  %71 = load i8, ptr %13, align 1
  %72 = zext i8 %71 to i32
  %73 = call ptr @proto_tree_add_uint(ptr noundef %67, i32 noundef %68, ptr noundef %69, i32 noundef %70, i32 noundef 1, i32 noundef %72)
  %74 = load i32, ptr %10, align 4
  %75 = add i32 %74, 1
  store i32 %75, ptr %10, align 4
  %76 = load ptr, ptr %11, align 8
  %77 = load i32, ptr @hf_ieee80211_tag_ssid, align 4
  %78 = load ptr, ptr %5, align 8
  %79 = load i32, ptr %10, align 4
  %80 = load i8, ptr %13, align 1
  %81 = zext i8 %80 to i32
  %82 = call ptr @proto_tree_add_item(ptr noundef %76, i32 noundef %77, ptr noundef %78, i32 noundef %79, i32 noundef %81, i32 noundef 0)
  %83 = load i8, ptr %13, align 1
  %84 = zext i8 %83 to i32
  %85 = load i32, ptr %10, align 4
  %86 = add i32 %85, %84
  store i32 %86, ptr %10, align 4
  store i32 0, ptr %15, align 4
  br label %87

87:                                               ; preds = %36, %35
  call void @llvm.lifetime.end.p0(i64 8, ptr %14) #19
  call void @llvm.lifetime.end.p0(i64 1, ptr %13) #19
  %88 = load i32, ptr %15, align 4
  switch i32 %88, label %93 [
    i32 0, label %89
    i32 3, label %90
  ]

89:                                               ; preds = %87
  br label %18, !llvm.loop !44

90:                                               ; preds = %87, %18
  %91 = load ptr, ptr %5, align 8
  %92 = call i32 @tvb_captured_length(ptr noundef %91)
  store i32 1, ptr %15, align 4
  call void @llvm.lifetime.end.p0(i64 1, ptr %12) #19
  call void @llvm.lifetime.end.p0(i64 8, ptr %11) #19
  call void @llvm.lifetime.end.p0(i64 4, ptr %10) #19
  call void @llvm.lifetime.end.p0(i64 4, ptr %9) #19
  ret i32 %92

93:                                               ; preds = %87
  unreachable
}