; Function Attrs: null_pointer_is_valid sspstrong uwtable
define internal i32 @dissect_ssid_list(ptr noundef %0, ptr noundef readonly captures(none) %1, ptr noundef %2, ptr readnone captures(none) %3) #2 {
  %5 = tail call i32 @tvb_reported_length(ptr noundef %0)
  %.not45 = icmp slt i32 %5, 1
  br i1 %.not45, label %.thread, label %.lr.ph

.lr.ph:                                           ; preds = %4
  %6 = getelementptr inbounds nuw i8, ptr %1, i64 408
  br label %7

7:                                                ; preds = %.lr.ph, %14
  %8 = phi i32 [ 1, %.lr.ph ], [ %26, %14 ]
  %.03647 = phi i32 [ 0, %.lr.ph ], [ %12, %14 ]
  %.03746 = phi i32 [ 58, %.lr.ph ], [ 44, %14 ]
  %9 = tail call zeroext i8 @tvb_get_uint8(ptr noundef %0, i32 noundef %8)
  %10 = add i32 %.03647, 2
  %11 = zext i8 %9 to i32
  %12 = add i32 %10, %11
  %13 = icmp sgt i32 %12, %5
  br i1 %13, label %.thread, label %14

14:                                               ; preds = %7
  %15 = load ptr, ptr %6, align 8
  %16 = tail call ptr @tvb_format_text(ptr noundef %15, ptr noundef %0, i32 noundef %10, i32 noundef %11)
  tail call void (ptr, ptr, ...) @proto_item_append_text(ptr noundef %2, ptr noundef nonnull @.str.10113, i32 noundef %.03746, ptr noundef %16)
  %17 = add nuw nsw i32 %11, 2
  %18 = load i32, ptr @ett_ssid_list, align 4
  %19 = tail call ptr (ptr, ptr, i32, i32, i32, ptr, ptr, ...) @proto_tree_add_subtree_format(ptr noundef %2, ptr noundef %0, i32 noundef %.03647, i32 noundef %17, i32 noundef %18, ptr noundef null, ptr noundef nonnull @.str.10114, ptr noundef %16)
  %20 = load i32, ptr @hf_ieee80211_tag_number, align 4
  %21 = tail call ptr @proto_tree_add_item(ptr noundef %19, i32 noundef %20, ptr noundef %0, i32 noundef %.03647, i32 noundef 1, i32 noundef -2147483648)
  %22 = load i32, ptr @hf_ieee80211_tag_length, align 4
  %23 = tail call ptr @proto_tree_add_uint(ptr noundef %19, i32 noundef %22, ptr noundef %0, i32 noundef %8, i32 noundef 1, i32 noundef %11)
  %24 = load i32, ptr @hf_ieee80211_tag_ssid, align 4
  %25 = tail call ptr @proto_tree_add_item(ptr noundef %19, i32 noundef %24, ptr noundef %0, i32 noundef %10, i32 noundef %11, i32 noundef 0)
  %26 = add i32 %12, 1
  %.not = icmp sgt i32 %26, %5
  br i1 %.not, label %.thread, label %7

.thread:                                          ; preds = %14, %7, %4
  %27 = tail call i32 @tvb_captured_length(ptr noundef %0)
  ret i32 %27
}